; Function Attrs: null_pointer_is_valid sspstrong uwtable
define internal void @nas_esm_remote_ue_report_resp(ptr noundef %0, ptr noundef %1, ptr noundef initializes((384, 388)) %2, i32 noundef %3, i32 noundef %4) #1 {
  %6 = getelementptr inbounds nuw i8, ptr %2, i64 384
  store i32 1, ptr %6, align 8
  %.not = icmp eq i32 %4, 0
  br i1 %.not, label %9, label %7

7:                                                ; preds = %5
  %8 = tail call ptr @proto_tree_add_expert(ptr noundef %1, ptr noundef %2, ptr noundef nonnull @ei_nas_eps_extraneous_data, ptr noundef %0, i32 noundef %3, i32 noundef %4)
  br label %9

9:                                                ; preds = %7, %5
  ret void
}